target datalayout = "e-m:e-p270:32:32-p271:32:32-p272:64:64-i64:64-i128:128-f80:128-n8:16:32:64-S128"
target triple = "x86_64-unknown-linux-gnu"

%struct.RbdEncryptionOptionsLUKSBase = type { ptr }
%struct.RbdEncryptionCreateOptionsLUKSBase = type { ptr, i8, i32 }

@.str.283 = private unnamed_addr constant [11 x i8] c"key-secret\00", align 1
@.str.351 = private unnamed_addr constant [11 x i8] c"cipher-alg\00", align 1

; Function Attrs: nounwind sspstrong uwtable
define dso_local zeroext i1 @visit_type_RbdEncryptionOptionsLUKSBase_members(ptr noundef %v, ptr noundef %obj, ptr noundef %errp) #0 {
entry:
  %retval = alloca i1, align 1
  %v.addr = alloca ptr, align 8
  %obj.addr = alloca ptr, align 8
  %errp.addr = alloca ptr, align 8
  store ptr %v, ptr %v.addr, align 8
  store ptr %obj, ptr %obj.addr, align 8
  store ptr %errp, ptr %errp.addr, align 8
  %0 = load ptr, ptr %v.addr, align 8
  %1 = load ptr, ptr %obj.addr, align 8
  %key_secret = getelementptr inbounds %struct.RbdEncryptionOptionsLUKSBase, ptr %1, i32 0, i32 0
  %2 = load ptr, ptr %errp.addr, align 8
  %call = call zeroext i1 @visit_type_str(ptr noundef %0, ptr noundef @.str.283, ptr noundef %key_secret, ptr noundef %2)
  br i1 %call, label %if.end, label %if.then

if.then:                                          ; preds = %entry
  store i1 false, ptr %retval, align 1
  br label %return

if.end:                                           ; preds = %entry
  store i1 true, ptr %retval, align 1
  br label %return

return:                                           ; preds = %if.end, %if.then
  %3 = load i1, ptr %retval, align 1
  ret i1 %3
}

; Function Attrs: nounwind sspstrong uwtable
define dso_local zeroext i1 @visit_type_RbdEncryptionCreateOptionsLUKSBase_members(ptr noundef %v, ptr noundef %obj, ptr noundef %errp) #0 {
entry:
  %retval = alloca i1, align 1
  %v.addr = alloca ptr, align 8
  %obj.addr = alloca ptr, align 8
  %errp.addr = alloca ptr, align 8
  store ptr %v, ptr %v.addr, align 8
  store ptr %obj, ptr %obj.addr, align 8
  store ptr %errp, ptr %errp.addr, align 8
  %0 = load ptr, ptr %v.addr, align 8
  %1 = load ptr, ptr %obj.addr, align 8
  %2 = load ptr, ptr %errp.addr, align 8
  %call = call zeroext i1 @visit_type_RbdEncryptionOptionsLUKSBase_members(ptr noundef %0, ptr noundef %1, ptr noundef %2)
  br i1 %call, label %if.end, label %if.then

if.then:                                          ; preds = %entry
  store i1 false, ptr %retval, align 1
  br label %return

if.end:                                           ; preds = %entry
  %3 = load ptr, ptr %v.addr, align 8
  %4 = load ptr, ptr %obj.addr, align 8
  %has_cipher_alg = getelementptr inbounds %struct.RbdEncryptionCreateOptionsLUKSBase, ptr %4, i32 0, i32 1
  %call1 = call zeroext i1 @visit_optional(ptr noundef %3, ptr noundef @.str.351, ptr noundef %has_cipher_alg)
  br i1 %call1, label %if.then2, label %if.end6

if.then2:                                         ; preds = %if.end
  %5 = load ptr, ptr %v.addr, align 8
  %6 = load ptr, ptr %obj.addr, align 8
  %cipher_alg = getelementptr inbounds %struct.RbdEncryptionCreateOptionsLUKSBase, ptr %6, i32 0, i32 2
  %7 = load ptr, ptr %errp.addr, align 8
  %call3 = call zeroext i1 @visit_type_QCryptoCipherAlgorithm(ptr noundef %5, ptr noundef @.str.351, ptr noundef %cipher_alg, ptr noundef %7)
  br i1 %call3, label %if.end5, label %if.then4

if.then4:                                         ; preds = %if.then2
  store i1 false, ptr %retval, align 1
  br label %return

if.end5:                                          ; preds = %if.then2
  br label %if.end6

if.end6:                                          ; preds = %if.end5, %if.end
  store i1 true, ptr %retval, align 1
  br label %return

return:                                           ; preds = %if.end6, %if.then4, %if.then
  %8 = load i1, ptr %retval, align 1
  ret i1 %8
}

; Function Attrs: nounwind sspstrong uwtable
define dso_local zeroext i1 @visit_type_RbdEncryptionCreateOptionsLUKS2_members(ptr noundef %v, ptr noundef %obj, ptr noundef %errp) #0 {
entry:
  %retval = alloca i1, align 1
  %v.addr = alloca ptr, align 8
  %obj.addr = alloca ptr, align 8
  %errp.addr = alloca ptr, align 8
  store ptr %v, ptr %v.addr, align 8
  store ptr %obj, ptr %obj.addr, align 8
  store ptr %errp, ptr %errp.addr, align 8
  %0 = load ptr, ptr %v.addr, align 8
  %1 = load ptr, ptr %obj.addr, align 8
  %2 = load ptr, ptr %errp.addr, align 8
  %call = call zeroext i1 @visit_type_RbdEncryptionCreateOptionsLUKSBase_members(ptr noundef %0, ptr noundef %1, ptr noundef %2)
  br i1 %call, label %if.end, label %if.then

if.then:                                          ; preds = %entry
  store i1 false, ptr %retval, align 1
  br label %return

if.end:                                           ; preds = %entry
  store i1 true, ptr %retval, align 1
  br label %return

return:                                           ; preds = %if.end, %if.then
  %3 = load i1, ptr %retval, align 1
  ret i1 %3
}