; Function Attrs: nounwind sspstrong uwtable
define dso_local noundef zeroext i1 @visit_type_RbdEncryptionCreateOptionsLUKS2_members(ptr noundef %v, ptr noundef %obj, ptr noundef %errp) local_unnamed_addr #0 {
entry:
  %call.i.i = tail call zeroext i1 @visit_type_str(ptr noundef %v, ptr noundef nonnull @.str.283, ptr noundef %obj, ptr noundef %errp) #5
  br i1 %call.i.i, label %if.end.i, label %visit_type_RbdEncryptionCreateOptionsLUKSBase_members.exit

if.end.i:                                         ; preds = %entry
  %has_cipher_alg.i = getelementptr inbounds nuw i8, ptr %obj, i64 8
  %call1.i = tail call zeroext i1 @visit_optional(ptr noundef %v, ptr noundef nonnull @.str.351, ptr noundef nonnull %has_cipher_alg.i) #5
  br i1 %call1.i, label %if.then2.i, label %if.end6.i

if.then2.i:                                       ; preds = %if.end.i
  %cipher_alg.i = getelementptr inbounds nuw i8, ptr %obj, i64 12
  %call3.i = tail call zeroext i1 @visit_type_QCryptoCipherAlgorithm(ptr noundef %v, ptr noundef nonnull @.str.351, ptr noundef nonnull %cipher_alg.i, ptr noundef %errp) #5
  br i1 %call3.i, label %if.end6.i, label %visit_type_RbdEncryptionCreateOptionsLUKSBase_members.exit

if.end6.i:                                        ; preds = %if.then2.i, %if.end.i
  br label %visit_type_RbdEncryptionCreateOptionsLUKSBase_members.exit

visit_type_RbdEncryptionCreateOptionsLUKSBase_members.exit: ; preds = %entry, %if.then2.i, %if.end6.i
  %retval.0.i = phi i1 [ true, %if.end6.i ], [ false, %entry ], [ false, %if.then2.i ]
  ret i1 %retval.0.i
}